target datalayout = "e-m:e-p270:32:32-p271:32:32-p272:64:64-i64:64-i128:128-f80:128-n8:16:32:64-S128"
target triple = "x86_64-pc-linux-gnu"

@.str = private unnamed_addr constant [7 x i8] c"digest\00", align 1
@.str.1 = private unnamed_addr constant [9 x i8] c"Instance\00", align 1
@.str.2 = private unnamed_addr constant [6 x i8] c"Class\00", align 1
@.str.3 = private unnamed_addr constant [13 x i8] c"bubblebabble\00", align 1
@id_digest = internal global i64 0, align 8
@.str.4 = private unnamed_addr constant [7 x i8] c"Digest\00", align 1

; Function Attrs: inlinehint nounwind sspstrong willreturn memory(read) uwtable
define internal i64 @rb_intern_const(ptr noundef nonnull %0) #4 {
  %2 = alloca ptr, align 8
  %3 = alloca i64, align 8
  store ptr %0, ptr %2, align 8, !tbaa !10
  call void @llvm.lifetime.start.p0(i64 8, ptr %3) #10
  %4 = load ptr, ptr %2, align 8, !tbaa !10
  %5 = call i64 @strlen(ptr noundef %4) #11
  store i64 %5, ptr %3, align 8, !tbaa !6
  %6 = load ptr, ptr %2, align 8, !tbaa !10
  %7 = load i64, ptr %3, align 8, !tbaa !6
  %8 = call i64 @rb_intern2(ptr noundef %6, i64 noundef %7)
  call void @llvm.lifetime.end.p0(i64 8, ptr %3) #10
  ret i64 %8
}

; Function Attrs: inlinehint nounwind sspstrong uwtable
define internal i64 @rb_digest_namespace() #3 {
  %1 = call i64 @rb_require(ptr noundef @.str)
  %2 = call i64 @rb_path2class(ptr noundef @.str.4)
  ret i64 %2
}

; Function Attrs: nounwind sspstrong uwtable
define void @Init_bubblebabble() #0 {
  %1 = alloca i64, align 8
  %2 = alloca i64, align 8
  %3 = alloca i64, align 8
  call void @llvm.lifetime.start.p0(i64 8, ptr %1) #10
  call void @llvm.lifetime.start.p0(i64 8, ptr %2) #10
  call void @llvm.lifetime.start.p0(i64 8, ptr %3) #10
  %4 = call i64 @rb_require(ptr noundef @.str)
  %5 = call i64 @rb_digest_namespace()
  store i64 %5, ptr %1, align 8, !tbaa !6
  %6 = load i64, ptr %1, align 8, !tbaa !6
  %7 = call i64 @rb_intern_const(ptr noundef @.str.1) #11
  %8 = call i64 @rb_const_get(i64 noundef %6, i64 noundef %7)
  store i64 %8, ptr %2, align 8, !tbaa !6
  %9 = load i64, ptr %1, align 8, !tbaa !6
  %10 = call i64 @rb_intern_const(ptr noundef @.str.2) #11
  %11 = call i64 @rb_const_get(i64 noundef %9, i64 noundef %10)
  store i64 %11, ptr %3, align 8, !tbaa !6
  %12 = load i64, ptr %1, align 8, !tbaa !6
  call void @rb_define_module_function(i64 noundef %12, ptr noundef @.str.3, ptr noundef @rb_digest_s_bubblebabble, i32 noundef 1)
  %13 = load i64, ptr %3, align 8, !tbaa !6
  call void @rb_define_singleton_method(i64 noundef %13, ptr noundef @.str.3, ptr noundef @rb_digest_class_s_bubblebabble, i32 noundef -1)
  %14 = load i64, ptr %2, align 8, !tbaa !6
  call void @rb_define_method(i64 noundef %14, ptr noundef @.str.3, ptr noundef @rb_digest_instance_bubblebabble, i32 noundef 0)
  %15 = call i64 @rb_intern(ptr noundef @.str)
  store i64 %15, ptr @id_digest, align 8, !tbaa !6
  call void @llvm.lifetime.end.p0(i64 8, ptr %3) #10
  call void @llvm.lifetime.end.p0(i64 8, ptr %2) #10
  call void @llvm.lifetime.end.p0(i64 8, ptr %1) #10
  ret void
}