; Function Attrs: nounwind sspstrong uwtable
define void @Init_bubblebabble() local_unnamed_addr #0 {
  %1 = tail call i64 @rb_require(ptr noundef nonnull @.str) #4
  %2 = tail call i64 @rb_require(ptr noundef nonnull @.str) #4
  %3 = tail call i64 @rb_path2class(ptr noundef nonnull @.str.4) #4
  %4 = tail call i64 @rb_intern2(ptr noundef nonnull @.str.1, i64 noundef 8) #4
  %5 = tail call i64 @rb_const_get(i64 noundef %3, i64 noundef %4) #4
  %6 = tail call i64 @rb_intern2(ptr noundef nonnull @.str.2, i64 noundef 5) #4
  %7 = tail call i64 @rb_const_get(i64 noundef %3, i64 noundef %6) #4
  tail call void @rb_define_module_function(i64 noundef %3, ptr noundef nonnull @.str.3, ptr noundef nonnull @rb_digest_s_bubblebabble, i32 noundef 1) #4
  tail call void @rb_define_singleton_method(i64 noundef %7, ptr noundef nonnull @.str.3, ptr noundef nonnull @rb_digest_class_s_bubblebabble, i32 noundef -1) #4
  tail call void @rb_define_method(i64 noundef %5, ptr noundef nonnull @.str.3, ptr noundef nonnull @rb_digest_instance_bubblebabble, i32 noundef 0) #4
  %8 = tail call i64 @rb_intern(ptr noundef nonnull @.str) #4
  store i64 %8, ptr @id_digest, align 8, !tbaa !6
  ret void
}